(dp0
S'users'
p1
(dp2
S'jmeloewe'
p3
(dp4
S'sups'
p5
(lp6
(dp7
S'date'
p8
V2015-03-23T15:06:21.914Z
p9
sS'sup_id'
p10
V2399ad3a-3084-48b1-bad7-c404de52a4bc
p11
sS'sender_id'
p12
S'jmeloewe'
p13
sa(dp14
S'date'
p15
V2015-03-23T15:27:27.572Z
p16
sS'sup_id'
p17
V211fa9cd-80b7-4e88-9ea7-223d2cb48b81
p18
sS'sender_id'
p19
S'jmeloewe'
p20
sa(dp21
S'date'
p22
V2015-03-23T15:27:29.759Z
p23
sS'sup_id'
p24
V54a5abd9-b9d2-4278-b375-36f3bb7eb8dc
p25
sS'sender_id'
p26
S'jmeloewe'
p27
sa(dp28
S'date'
p29
V2015-03-23T15:27:30.373Z
p30
sS'sup_id'
p31
Vdbe954dc-62b8-4b86-a354-4a3a14ad7864
p32
sS'sender_id'
p33
S'jmeloewe'
p34
sa(dp35
S'date'
p36
V2015-03-23T15:27:33.970Z
p37
sS'sup_id'
p38
V05e0ecde-7400-4973-8579-f51e3ff1af4c
p39
sS'sender_id'
p40
S'jmeloewe'
p41
sa(dp42
S'date'
p43
V2015-03-23T15:27:35.199Z
p44
sS'sup_id'
p45
V58232e4e-c6b4-4cf0-82ab-51c90899e5fa
p46
sS'sender_id'
p47
S'jmeloewe'
p48
sa(dp49
S'date'
p50
V2015-03-23T15:27:37.827Z
p51
sS'sup_id'
p52
V3e598699-bddc-4e02-91e4-c3d1cf67b9a5
p53
sS'sender_id'
p54
S'jmeloewe'
p55
sa(dp56
S'date'
p57
V2015-03-23T15:27:38.435Z
p58
sS'sup_id'
p59
V606c78e0-6d32-4f7c-b3fd-c4b08e57105e
p60
sS'sender_id'
p61
S'jmeloewe'
p62
sasS'user_id'
p63
g3
sS'friends_list'
p64
(lp65
Vtest_jmeloewe
p66
aVtestfriend
p67
aVTest Friend 2
p68
aVjmeloewe
p69
asS'full_name'
p70
S'James Loewen'
p71
ssVtest_jmeloewe
p72
(dp73
S'sups'
p74
(lp75
(dp76
S'date'
p77
V2015-03-22T03:28:30.399Z
p78
sS'sup_id'
p79
Vjmeloewe_sup_2
p80
sS'sender_id'
p81
S'jmeloewe'
p82
sasS'user_id'
p83
g72
sS'full_name'
p84
VTest User
p85
sS'friends_list'
p86
(lp87
ssS'Test Friend 2'
p88
(dp89
S'sups'
p90
(lp91
(dp92
S'date'
p93
V2015-03-23T03:56:13.610Z
p94
sS'sup_id'
p95
Vjmeloewe_sup_27
p96
sS'sender_id'
p97
S'jmeloewe'
p98
sa(dp99
S'date'
p100
V2015-03-23T03:56:14.298Z
p101
sS'sup_id'
p102
Vjmeloewe_sup_31
p103
sS'sender_id'
p104
S'jmeloewe'
p105
sasS'user_id'
p106
g88
sS'full_name'
p107
S'Joe'
p108
sS'friends_list'
p109
(lp110
ssS'testfriend'
p111
(dp112
S'sups'
p113
(lp114
(dp115
S'date'
p116
V2015-03-22T03:28:30.421Z
p117
sS'sup_id'
p118
Vjmeloewe_sup_4
p119
sS'sender_id'
p120
S'jmeloewe'
p121
sa(dp122
S'date'
p123
V2015-03-23T03:56:13.610Z
p124
sS'sup_id'
p125
Vjmeloewe_sup_25
p126
sS'sender_id'
p127
S'jmeloewe'
p128
sa(dp129
S'date'
p130
V2015-03-23T03:56:14.298Z
p131
sS'sup_id'
p132
Vjmeloewe_sup_29
p133
sS'sender_id'
p134
S'jmeloewe'
p135
sasS'user_id'
p136
g111
sS'full_name'
p137
S'Foo'
p138
sS'friends_list'
p139
(lp140
Vjmeloewe
p141
asss.