(dp0
S'users'
p1
(dp2
S'nik'
p3
(dp4
S'sups'
p5
(lp6
sS'user_id'
p7
g3
sS'friends_list'
p8
(lp9
sS'full_name'
p10
S'nik'
p11
ssS'james'
p12
(dp13
S'sups'
p14
(lp15
sS'user_id'
p16
g12
sS'full_name'
p17
S'james'
p18
sS'friends_list'
p19
(lp20
ssS'1'
p21
(dp22
S'sups'
p23
(lp24
sS'user_id'
p25
g21
sS'friends_list'
p26
(lp27
sS'full_name'
p28
g21
ssVtest_jmeloewe
p29
(dp30
S'sups'
p31
(lp32
(dp33
S'date'
p34
V2015-03-22T03:28:30.399Z
p35
sS'sup_id'
p36
Vjmeloewe_sup_2
p37
sS'sender_id'
p38
S'jmeloewe'
p39
sasS'user_id'
p40
g29
sS'full_name'
p41
VTest User
p42
sS'friends_list'
p43
(lp44
ssS'Test Friend 2'
p45
(dp46
S'sups'
p47
(lp48
(dp49
S'date'
p50
V2015-03-23T03:56:13.610Z
p51
sS'sup_id'
p52
Vjmeloewe_sup_27
p53
sS'sender_id'
p54
S'jmeloewe'
p55
sa(dp56
S'date'
p57
V2015-03-23T03:56:14.298Z
p58
sS'sup_id'
p59
Vjmeloewe_sup_31
p60
sS'sender_id'
p61
S'jmeloewe'
p62
sasS'user_id'
p63
g45
sS'full_name'
p64
S'Joe'
p65
sS'friends_list'
p66
(lp67
ssS'testfriend'
p68
(dp69
S'sups'
p70
(lp71
(dp72
S'date'
p73
V2015-03-22T03:28:30.421Z
p74
sS'sup_id'
p75
Vjmeloewe_sup_4
p76
sS'sender_id'
p77
S'jmeloewe'
p78
sa(dp79
S'date'
p80
V2015-03-23T03:56:13.610Z
p81
sS'sup_id'
p82
Vjmeloewe_sup_25
p83
sS'sender_id'
p84
S'jmeloewe'
p85
sa(dp86
S'date'
p87
V2015-03-23T03:56:14.298Z
p88
sS'sup_id'
p89
Vjmeloewe_sup_29
p90
sS'sender_id'
p91
S'jmeloewe'
p92
sasS'user_id'
p93
g68
sS'full_name'
p94
S'Foo'
p95
sS'friends_list'
p96
(lp97
Vjmeloewe
p98
assS'jmeloewe'
p99
(dp100
S'sups'
p101
(lp102
(dp103
S'date'
p104
V2015-03-23T15:06:21.914Z
p105
sS'sup_id'
p106
V2399ad3a-3084-48b1-bad7-c404de52a4bc
p107
sS'sender_id'
p108
S'jmeloewe'
p109
sa(dp110
S'date'
p111
V2015-03-23T15:27:27.572Z
p112
sS'sup_id'
p113
V211fa9cd-80b7-4e88-9ea7-223d2cb48b81
p114
sS'sender_id'
p115
S'jmeloewe'
p116
sa(dp117
S'date'
p118
V2015-03-23T15:27:29.759Z
p119
sS'sup_id'
p120
V54a5abd9-b9d2-4278-b375-36f3bb7eb8dc
p121
sS'sender_id'
p122
S'jmeloewe'
p123
sa(dp124
S'date'
p125
V2015-03-23T15:27:30.373Z
p126
sS'sup_id'
p127
Vdbe954dc-62b8-4b86-a354-4a3a14ad7864
p128
sS'sender_id'
p129
S'jmeloewe'
p130
sa(dp131
S'date'
p132
V2015-03-23T15:27:33.970Z
p133
sS'sup_id'
p134
V05e0ecde-7400-4973-8579-f51e3ff1af4c
p135
sS'sender_id'
p136
S'jmeloewe'
p137
sa(dp138
S'date'
p139
V2015-03-23T15:27:35.199Z
p140
sS'sup_id'
p141
V58232e4e-c6b4-4cf0-82ab-51c90899e5fa
p142
sS'sender_id'
p143
S'jmeloewe'
p144
sa(dp145
S'date'
p146
V2015-03-23T15:27:37.827Z
p147
sS'sup_id'
p148
V3e598699-bddc-4e02-91e4-c3d1cf67b9a5
p149
sS'sender_id'
p150
S'jmeloewe'
p151
sa(dp152
S'date'
p153
V2015-03-23T15:27:38.435Z
p154
sS'sup_id'
p155
V606c78e0-6d32-4f7c-b3fd-c4b08e57105e
p156
sS'sender_id'
p157
S'jmeloewe'
p158
sasS'user_id'
p159
g99
sS'friends_list'
p160
(lp161
Vtest_jmeloewe
p162
aVtestfriend
p163
aVTest Friend 2
p164
aVjmeloewe
p165
asS'full_name'
p166
S'James Loewen'
p167
ssS'2'
p168
(dp169
S'sups'
p170
(lp171
sS'user_id'
p172
g168
sS'full_name'
p173
g168
sS'friends_list'
p174
(lp175
V1
p176
aVasdf
p177
assS'asdf'
p178
(dp179
S'sups'
p180
(lp181
(dp182
S'date'
p183
V2016-05-26T01:18:48.660Z
p184
sS'sup_id'
p185
V9f84c856-5fa0-4c77-bf67-eed536b7c172
p186
sS'sender_id'
p187
S'2'
p188
sa(dp189
S'date'
p190
V2016-05-26T01:18:49.562Z
p191
sS'sup_id'
p192
V8e998d90-8287-474d-b988-a53e051bab51
p193
sS'sender_id'
p194
S'2'
p195
sasS'user_id'
p196
g178
sS'full_name'
p197
S'adfgs'
p198
sS'friends_list'
p199
(lp200
sss.