(dp0
S'users'
p1
(dp2
S'nik'
p3
(dp4
S'sups'
p5
(lp6
sS'user_id'
p7
g3
sS'full_name'
p8
S'nik'
p9
sS'friends_list'
p10
(lp11
ssS'james'
p12
(dp13
S'sups'
p14
(lp15
sS'user_id'
p16
g12
sS'friends_list'
p17
(lp18
sS'full_name'
p19
S'james'
p20
ssS'1'
p21
(dp22
S'sups'
p23
(lp24
sS'user_id'
p25
g21
sS'full_name'
p26
g21
sS'friends_list'
p27
(lp28
ssVtest_jmeloewe
p29
(dp30
S'sups'
p31
(lp32
(dp33
S'date'
p34
V2015-03-22T03:28:30.399Z
p35
sS'sup_id'
p36
Vjmeloewe_sup_2
p37
sS'sender_id'
p38
S'jmeloewe'
p39
sasS'user_id'
p40
g29
sS'friends_list'
p41
(lp42
sS'full_name'
p43
VTest User
p44
ssS'Test Friend 2'
p45
(dp46
S'sups'
p47
(lp48
(dp49
S'date'
p50
V2015-03-23T03:56:13.610Z
p51
sS'sup_id'
p52
Vjmeloewe_sup_27
p53
sS'sender_id'
p54
S'jmeloewe'
p55
sa(dp56
S'date'
p57
V2015-03-23T03:56:14.298Z
p58
sS'sup_id'
p59
Vjmeloewe_sup_31
p60
sS'sender_id'
p61
S'jmeloewe'
p62
sasS'user_id'
p63
g45
sS'friends_list'
p64
(lp65
sS'full_name'
p66
S'Joe'
p67
ssS'asdf'
p68
(dp69
S'sups'
p70
(lp71
(dp72
S'date'
p73
V2016-05-26T01:18:48.660Z
p74
sS'sup_id'
p75
V9f84c856-5fa0-4c77-bf67-eed536b7c172
p76
sS'sender_id'
p77
S'2'
p78
sa(dp79
S'date'
p80
V2016-05-26T01:18:49.562Z
p81
sS'sup_id'
p82
V8e998d90-8287-474d-b988-a53e051bab51
p83
sS'sender_id'
p84
S'2'
p85
sasS'user_id'
p86
g68
sS'friends_list'
p87
(lp88
sS'full_name'
p89
S'adfgs'
p90
ssS'James'
p91
(dp92
S'sups'
p93
(lp94
sS'user_id'
p95
g91
sS'friends_list'
p96
(lp97
sS'full_name'
p98
S'James'
p99
ssS'jmeloewe'
p100
(dp101
S'sups'
p102
(lp103
(dp104
S'date'
p105
V2015-03-23T15:06:21.914Z
p106
sS'sup_id'
p107
V2399ad3a-3084-48b1-bad7-c404de52a4bc
p108
sS'sender_id'
p109
S'jmeloewe'
p110
sa(dp111
S'date'
p112
V2015-03-23T15:27:27.572Z
p113
sS'sup_id'
p114
V211fa9cd-80b7-4e88-9ea7-223d2cb48b81
p115
sS'sender_id'
p116
S'jmeloewe'
p117
sa(dp118
S'date'
p119
V2015-03-23T15:27:29.759Z
p120
sS'sup_id'
p121
V54a5abd9-b9d2-4278-b375-36f3bb7eb8dc
p122
sS'sender_id'
p123
S'jmeloewe'
p124
sa(dp125
S'date'
p126
V2015-03-23T15:27:30.373Z
p127
sS'sup_id'
p128
Vdbe954dc-62b8-4b86-a354-4a3a14ad7864
p129
sS'sender_id'
p130
S'jmeloewe'
p131
sa(dp132
S'date'
p133
V2015-03-23T15:27:33.970Z
p134
sS'sup_id'
p135
V05e0ecde-7400-4973-8579-f51e3ff1af4c
p136
sS'sender_id'
p137
S'jmeloewe'
p138
sa(dp139
S'date'
p140
V2015-03-23T15:27:35.199Z
p141
sS'sup_id'
p142
V58232e4e-c6b4-4cf0-82ab-51c90899e5fa
p143
sS'sender_id'
p144
S'jmeloewe'
p145
sa(dp146
S'date'
p147
V2015-03-23T15:27:37.827Z
p148
sS'sup_id'
p149
V3e598699-bddc-4e02-91e4-c3d1cf67b9a5
p150
sS'sender_id'
p151
S'jmeloewe'
p152
sa(dp153
S'date'
p154
V2015-03-23T15:27:38.435Z
p155
sS'sup_id'
p156
V606c78e0-6d32-4f7c-b3fd-c4b08e57105e
p157
sS'sender_id'
p158
S'jmeloewe'
p159
sasS'user_id'
p160
g100
sS'full_name'
p161
S'James Loewen'
p162
sS'friends_list'
p163
(lp164
Vtest_jmeloewe
p165
aVtestfriend
p166
aVTest Friend 2
p167
aVjmeloewe
p168
assS'2'
p169
(dp170
S'sups'
p171
(lp172
sS'user_id'
p173
g169
sS'friends_list'
p174
(lp175
V1
p176
aVasdf
p177
asS'full_name'
p178
g169
ssS'testfriend'
p179
(dp180
S'sups'
p181
(lp182
(dp183
S'date'
p184
V2015-03-22T03:28:30.421Z
p185
sS'sup_id'
p186
Vjmeloewe_sup_4
p187
sS'sender_id'
p188
S'jmeloewe'
p189
sa(dp190
S'date'
p191
V2015-03-23T03:56:13.610Z
p192
sS'sup_id'
p193
Vjmeloewe_sup_25
p194
sS'sender_id'
p195
S'jmeloewe'
p196
sa(dp197
S'date'
p198
V2015-03-23T03:56:14.298Z
p199
sS'sup_id'
p200
Vjmeloewe_sup_29
p201
sS'sender_id'
p202
S'jmeloewe'
p203
sasS'user_id'
p204
g179
sS'friends_list'
p205
(lp206
Vjmeloewe
p207
asS'full_name'
p208
S'Foo'
p209
sss.