(dp0
S'users'
p1
(dp2
S'nik'
p3
(dp4
S'sups'
p5
(lp6
sS'user_id'
p7
g3
sS'friends_list'
p8
(lp9
sS'full_name'
p10
S'nik'
p11
ssS'james'
p12
(dp13
S'sups'
p14
(lp15
sS'user_id'
p16
g12
sS'full_name'
p17
S'james'
p18
sS'friends_list'
p19
(lp20
ssS'1'
p21
(dp22
S'sups'
p23
(lp24
sS'user_id'
p25
g21
sS'friends_list'
p26
(lp27
sS'full_name'
p28
g21
ssVtest_jmeloewe
p29
(dp30
S'sups'
p31
(lp32
(dp33
S'date'
p34
V2015-03-22T03:28:30.399Z
p35
sS'sup_id'
p36
Vjmeloewe_sup_2
p37
sS'sender_id'
p38
S'jmeloewe'
p39
sasS'user_id'
p40
g29
sS'full_name'
p41
VTest User
p42
sS'friends_list'
p43
(lp44
ssS'Test Friend 2'
p45
(dp46
S'sups'
p47
(lp48
(dp49
S'date'
p50
V2015-03-23T03:56:13.610Z
p51
sS'sup_id'
p52
Vjmeloewe_sup_27
p53
sS'sender_id'
p54
S'jmeloewe'
p55
sa(dp56
S'date'
p57
V2015-03-23T03:56:14.298Z
p58
sS'sup_id'
p59
Vjmeloewe_sup_31
p60
sS'sender_id'
p61
S'jmeloewe'
p62
sasS'user_id'
p63
g45
sS'full_name'
p64
S'Joe'
p65
sS'friends_list'
p66
(lp67
ssS'testfriend'
p68
(dp69
S'sups'
p70
(lp71
(dp72
S'date'
p73
V2015-03-22T03:28:30.421Z
p74
sS'sup_id'
p75
Vjmeloewe_sup_4
p76
sS'sender_id'
p77
S'jmeloewe'
p78
sa(dp79
S'date'
p80
V2015-03-23T03:56:13.610Z
p81
sS'sup_id'
p82
Vjmeloewe_sup_25
p83
sS'sender_id'
p84
S'jmeloewe'
p85
sa(dp86
S'date'
p87
V2015-03-23T03:56:14.298Z
p88
sS'sup_id'
p89
Vjmeloewe_sup_29
p90
sS'sender_id'
p91
S'jmeloewe'
p92
sasS'user_id'
p93
g68
sS'full_name'
p94
S'Foo'
p95
sS'friends_list'
p96
(lp97
Vjmeloewe
p98
assS'James'
p99
(dp100
S'sups'
p101
(lp102
sS'user_id'
p103
g99
sS'full_name'
p104
S'James'
p105
sS'friends_list'
p106
(lp107
ssS'jmeloewe'
p108
(dp109
S'sups'
p110
(lp111
(dp112
S'date'
p113
V2015-03-23T15:06:21.914Z
p114
sS'sup_id'
p115
V2399ad3a-3084-48b1-bad7-c404de52a4bc
p116
sS'sender_id'
p117
S'jmeloewe'
p118
sa(dp119
S'date'
p120
V2015-03-23T15:27:27.572Z
p121
sS'sup_id'
p122
V211fa9cd-80b7-4e88-9ea7-223d2cb48b81
p123
sS'sender_id'
p124
S'jmeloewe'
p125
sa(dp126
S'date'
p127
V2015-03-23T15:27:29.759Z
p128
sS'sup_id'
p129
V54a5abd9-b9d2-4278-b375-36f3bb7eb8dc
p130
sS'sender_id'
p131
S'jmeloewe'
p132
sa(dp133
S'date'
p134
V2015-03-23T15:27:30.373Z
p135
sS'sup_id'
p136
Vdbe954dc-62b8-4b86-a354-4a3a14ad7864
p137
sS'sender_id'
p138
S'jmeloewe'
p139
sa(dp140
S'date'
p141
V2015-03-23T15:27:33.970Z
p142
sS'sup_id'
p143
V05e0ecde-7400-4973-8579-f51e3ff1af4c
p144
sS'sender_id'
p145
S'jmeloewe'
p146
sa(dp147
S'date'
p148
V2015-03-23T15:27:35.199Z
p149
sS'sup_id'
p150
V58232e4e-c6b4-4cf0-82ab-51c90899e5fa
p151
sS'sender_id'
p152
S'jmeloewe'
p153
sa(dp154
S'date'
p155
V2015-03-23T15:27:37.827Z
p156
sS'sup_id'
p157
V3e598699-bddc-4e02-91e4-c3d1cf67b9a5
p158
sS'sender_id'
p159
S'jmeloewe'
p160
sa(dp161
S'date'
p162
V2015-03-23T15:27:38.435Z
p163
sS'sup_id'
p164
V606c78e0-6d32-4f7c-b3fd-c4b08e57105e
p165
sS'sender_id'
p166
S'jmeloewe'
p167
sasS'user_id'
p168
g108
sS'friends_list'
p169
(lp170
Vtest_jmeloewe
p171
aVtestfriend
p172
aVTest Friend 2
p173
aVjmeloewe
p174
asS'full_name'
p175
S'James Loewen'
p176
ssS'2'
p177
(dp178
S'sups'
p179
(lp180
sS'user_id'
p181
g177
sS'full_name'
p182
g177
sS'friends_list'
p183
(lp184
V1
p185
aVasdf
p186
assS'asdf'
p187
(dp188
S'sups'
p189
(lp190
(dp191
S'date'
p192
V2016-05-26T01:18:48.660Z
p193
sS'sup_id'
p194
V9f84c856-5fa0-4c77-bf67-eed536b7c172
p195
sS'sender_id'
p196
S'2'
p197
sa(dp198
S'date'
p199
V2016-05-26T01:18:49.562Z
p200
sS'sup_id'
p201
V8e998d90-8287-474d-b988-a53e051bab51
p202
sS'sender_id'
p203
S'2'
p204
sasS'user_id'
p205
g187
sS'full_name'
p206
S'adfgs'
p207
sS'friends_list'
p208
(lp209
sss.